target datalayout = "e-m:e-p270:32:32-p271:32:32-p272:64:64-i64:64-i128:128-f80:128-n8:16:32:64-S128"
target triple = "x86_64-pc-linux-gnu"

%struct.wc_HashAlg = type { %union.wc_Hashes, i32, ptr }
%union.wc_Hashes = type { %struct.wc_Sha3 }
%struct.wc_Sha3 = type { [25 x i64], [200 x i8], i8, ptr }

; Function Attrs: inlinehint nounwind uwtable
define internal i32 @ctMaskWord32GTE(i32 noundef %0, i32 noundef %1) #3 {
  %3 = alloca i32, align 4
  %4 = alloca i32, align 4
  store i32 %0, ptr %3, align 4, !tbaa !8
  store i32 %1, ptr %4, align 4, !tbaa !8
  %5 = load i32, ptr %3, align 4, !tbaa !8
  %6 = zext i32 %5 to i64
  %7 = load i32, ptr %4, align 4, !tbaa !8
  %8 = zext i32 %7 to i64
  %9 = sub i64 %6, %8
  %10 = lshr i64 %9, 63
  %11 = sub i64 %10, 1
  %12 = trunc i64 %11 to i32
  ret i32 %12
}

; Function Attrs: inlinehint nounwind uwtable
define internal i32 @min(i32 noundef %0, i32 noundef %1) #3 {
  %3 = alloca i32, align 4
  %4 = alloca i32, align 4
  %5 = alloca i32, align 4
  store i32 %0, ptr %3, align 4, !tbaa !8
  store i32 %1, ptr %4, align 4, !tbaa !8
  call void @llvm.lifetime.start.p0(i64 4, ptr %5) #6
  %6 = load i32, ptr %3, align 4, !tbaa !8
  %7 = load i32, ptr %4, align 4, !tbaa !8
  %8 = call i32 @ctMaskWord32GTE(i32 noundef %6, i32 noundef %7)
  store i32 %8, ptr %5, align 4, !tbaa !8
  %9 = load i32, ptr %3, align 4, !tbaa !8
  %10 = load i32, ptr %5, align 4, !tbaa !8
  %11 = xor i32 %10, -1
  %12 = and i32 %9, %11
  %13 = load i32, ptr %4, align 4, !tbaa !8
  %14 = load i32, ptr %5, align 4, !tbaa !8
  %15 = and i32 %13, %14
  %16 = or i32 %12, %15
  call void @llvm.lifetime.end.p0(i64 4, ptr %5) #6
  ret i32 %16
}

; Function Attrs: nounwind uwtable
define i32 @wc_PBKDF1_ex(ptr noundef %0, i32 noundef %1, ptr noundef %2, i32 noundef %3, ptr noundef %4, i32 noundef %5, ptr noundef %6, i32 noundef %7, i32 noundef %8, i32 noundef %9, ptr noundef %10) #0 {
  %12 = alloca i32, align 4
  %13 = alloca ptr, align 8
  %14 = alloca i32, align 4
  %15 = alloca ptr, align 8
  %16 = alloca i32, align 4
  %17 = alloca ptr, align 8
  %18 = alloca i32, align 4
  %19 = alloca ptr, align 8
  %20 = alloca i32, align 4
  %21 = alloca i32, align 4
  %22 = alloca i32, align 4
  %23 = alloca ptr, align 8
  %24 = alloca i32, align 4
  %25 = alloca i32, align 4
  %26 = alloca i32, align 4
  %27 = alloca i32, align 4
  %28 = alloca i32, align 4
  %29 = alloca i32, align 4
  %30 = alloca i32, align 4
  %31 = alloca [64 x i8], align 16
  %32 = alloca [1 x %struct.wc_HashAlg], align 16
  %33 = alloca i32, align 4
  %34 = alloca i32, align 4
  %35 = alloca i32, align 4
  store ptr %0, ptr %13, align 8, !tbaa !3
  store i32 %1, ptr %14, align 4, !tbaa !8
  store ptr %2, ptr %15, align 8, !tbaa !3
  store i32 %3, ptr %16, align 4, !tbaa !8
  store ptr %4, ptr %17, align 8, !tbaa !3
  store i32 %5, ptr %18, align 4, !tbaa !8
  store ptr %6, ptr %19, align 8, !tbaa !3
  store i32 %7, ptr %20, align 4, !tbaa !8
  store i32 %8, ptr %21, align 4, !tbaa !8
  store i32 %9, ptr %22, align 4, !tbaa !8
  store ptr %10, ptr %23, align 8, !tbaa !10
  call void @llvm.lifetime.start.p0(i64 4, ptr %24) #6
  call void @llvm.lifetime.start.p0(i64 4, ptr %25) #6
  call void @llvm.lifetime.start.p0(i64 4, ptr %26) #6
  call void @llvm.lifetime.start.p0(i64 4, ptr %27) #6
  call void @llvm.lifetime.start.p0(i64 4, ptr %28) #6
  call void @llvm.lifetime.start.p0(i64 4, ptr %29) #6
  store i32 0, ptr %29, align 4, !tbaa !8
  call void @llvm.lifetime.start.p0(i64 4, ptr %30) #6
  call void @llvm.lifetime.start.p0(i64 64, ptr %31) #6
  call void @llvm.lifetime.start.p0(i64 432, ptr %32) #6
  call void @llvm.lifetime.start.p0(i64 4, ptr %33) #6
  %36 = load ptr, ptr %13, align 8, !tbaa !3
  %37 = icmp eq ptr %36, null
  br i1 %37, label %50, label %38

38:                                               ; preds = %11
  %39 = load i32, ptr %14, align 4, !tbaa !8
  %40 = icmp slt i32 %39, 0
  br i1 %40, label %50, label %41

41:                                               ; preds = %38
  %42 = load i32, ptr %18, align 4, !tbaa !8
  %43 = icmp slt i32 %42, 0
  br i1 %43, label %50, label %44

44:                                               ; preds = %41
  %45 = load i32, ptr %20, align 4, !tbaa !8
  %46 = icmp slt i32 %45, 0
  br i1 %46, label %50, label %47

47:                                               ; preds = %44
  %48 = load i32, ptr %16, align 4, !tbaa !8
  %49 = icmp slt i32 %48, 0
  br i1 %49, label %50, label %51

50:                                               ; preds = %47, %44, %41, %38, %11
  store i32 -173, ptr %12, align 4
  store i32 1, ptr %34, align 4
  br label %236

51:                                               ; preds = %47
  %52 = load i32, ptr %21, align 4, !tbaa !8
  %53 = icmp sle i32 %52, 0
  br i1 %53, label %54, label %55

54:                                               ; preds = %51
  store i32 1, ptr %21, align 4, !tbaa !8
  br label %55

55:                                               ; preds = %54, %51
  %56 = load i32, ptr %22, align 4, !tbaa !8
  %57 = call i32 @wc_HashTypeConvert(i32 noundef %56)
  store i32 %57, ptr %33, align 4, !tbaa !8
  %58 = load i32, ptr %33, align 4, !tbaa !8
  %59 = call i32 @wc_HashGetDigestSize(i32 noundef %58)
  store i32 %59, ptr %24, align 4, !tbaa !8
  %60 = load i32, ptr %24, align 4, !tbaa !8
  %61 = icmp slt i32 %60, 0
  br i1 %61, label %62, label %64

62:                                               ; preds = %55
  %63 = load i32, ptr %24, align 4, !tbaa !8
  store i32 %63, ptr %12, align 4
  store i32 1, ptr %34, align 4
  br label %236

64:                                               ; preds = %55
  %65 = load i32, ptr %24, align 4, !tbaa !8
  store i32 %65, ptr %30, align 4, !tbaa !8
  %66 = getelementptr inbounds [1 x %struct.wc_HashAlg], ptr %32, i64 0, i64 0
  %67 = load i32, ptr %33, align 4, !tbaa !8
  %68 = load ptr, ptr %23, align 8, !tbaa !10
  %69 = call i32 @wc_HashInit_ex(ptr noundef %66, i32 noundef %67, ptr noundef %68, i32 noundef -2)
  store i32 %69, ptr %24, align 4, !tbaa !8
  %70 = load i32, ptr %24, align 4, !tbaa !8
  %71 = icmp ne i32 %70, 0
  br i1 %71, label %72, label %74

72:                                               ; preds = %64
  %73 = load i32, ptr %24, align 4, !tbaa !8
  store i32 %73, ptr %12, align 4
  store i32 1, ptr %34, align 4
  br label %236

74:                                               ; preds = %64
  %75 = load i32, ptr %14, align 4, !tbaa !8
  store i32 %75, ptr %25, align 4, !tbaa !8
  %76 = load i32, ptr %16, align 4, !tbaa !8
  store i32 %76, ptr %26, align 4, !tbaa !8
  br label %77

77:                                               ; preds = %218, %74
  %78 = load i32, ptr %29, align 4, !tbaa !8
  %79 = load i32, ptr %14, align 4, !tbaa !8
  %80 = load i32, ptr %16, align 4, !tbaa !8
  %81 = add nsw i32 %79, %80
  %82 = icmp slt i32 %78, %81
  br i1 %82, label %83, label %219

83:                                               ; preds = %77
  call void @llvm.lifetime.start.p0(i64 4, ptr %35) #6
  %84 = load i32, ptr %30, align 4, !tbaa !8
  store i32 %84, ptr %35, align 4, !tbaa !8
  %85 = load i32, ptr %29, align 4, !tbaa !8
  %86 = icmp ne i32 %85, 0
  br i1 %86, label %87, label %97

87:                                               ; preds = %83
  %88 = getelementptr inbounds [1 x %struct.wc_HashAlg], ptr %32, i64 0, i64 0
  %89 = load i32, ptr %33, align 4, !tbaa !8
  %90 = getelementptr inbounds [64 x i8], ptr %31, i64 0, i64 0
  %91 = load i32, ptr %30, align 4, !tbaa !8
  %92 = call i32 @wc_HashUpdate(ptr noundef %88, i32 noundef %89, ptr noundef %90, i32 noundef %91)
  store i32 %92, ptr %24, align 4, !tbaa !8
  %93 = load i32, ptr %24, align 4, !tbaa !8
  %94 = icmp ne i32 %93, 0
  br i1 %94, label %95, label %96

95:                                               ; preds = %87
  store i32 3, ptr %34, align 4
  br label %216

96:                                               ; preds = %87
  br label %97

97:                                               ; preds = %96, %83
  %98 = getelementptr inbounds [1 x %struct.wc_HashAlg], ptr %32, i64 0, i64 0
  %99 = load i32, ptr %33, align 4, !tbaa !8
  %100 = load ptr, ptr %17, align 8, !tbaa !3
  %101 = load i32, ptr %18, align 4, !tbaa !8
  %102 = call i32 @wc_HashUpdate(ptr noundef %98, i32 noundef %99, ptr noundef %100, i32 noundef %101)
  store i32 %102, ptr %24, align 4, !tbaa !8
  %103 = load i32, ptr %24, align 4, !tbaa !8
  %104 = icmp ne i32 %103, 0
  br i1 %104, label %105, label %106

105:                                              ; preds = %97
  store i32 3, ptr %34, align 4
  br label %216

106:                                              ; preds = %97
  %107 = load ptr, ptr %19, align 8, !tbaa !3
  %108 = icmp ne ptr %107, null
  br i1 %108, label %109, label %119

109:                                              ; preds = %106
  %110 = getelementptr inbounds [1 x %struct.wc_HashAlg], ptr %32, i64 0, i64 0
  %111 = load i32, ptr %33, align 4, !tbaa !8
  %112 = load ptr, ptr %19, align 8, !tbaa !3
  %113 = load i32, ptr %20, align 4, !tbaa !8
  %114 = call i32 @wc_HashUpdate(ptr noundef %110, i32 noundef %111, ptr noundef %112, i32 noundef %113)
  store i32 %114, ptr %24, align 4, !tbaa !8
  %115 = load i32, ptr %24, align 4, !tbaa !8
  %116 = icmp ne i32 %115, 0
  br i1 %116, label %117, label %118

117:                                              ; preds = %109
  store i32 3, ptr %34, align 4
  br label %216

118:                                              ; preds = %109
  br label %119

119:                                              ; preds = %118, %106
  %120 = getelementptr inbounds [1 x %struct.wc_HashAlg], ptr %32, i64 0, i64 0
  %121 = load i32, ptr %33, align 4, !tbaa !8
  %122 = getelementptr inbounds [64 x i8], ptr %31, i64 0, i64 0
  %123 = call i32 @wc_HashFinal(ptr noundef %120, i32 noundef %121, ptr noundef %122)
  store i32 %123, ptr %24, align 4, !tbaa !8
  %124 = load i32, ptr %24, align 4, !tbaa !8
  %125 = icmp ne i32 %124, 0
  br i1 %125, label %126, label %127

126:                                              ; preds = %119
  store i32 3, ptr %34, align 4
  br label %216

127:                                              ; preds = %119
  store i32 1, ptr %27, align 4, !tbaa !8
  br label %128

128:                                              ; preds = %150, %127
  %129 = load i32, ptr %27, align 4, !tbaa !8
  %130 = load i32, ptr %21, align 4, !tbaa !8
  %131 = icmp slt i32 %129, %130
  br i1 %131, label %132, label %153

132:                                              ; preds = %128
  %133 = getelementptr inbounds [1 x %struct.wc_HashAlg], ptr %32, i64 0, i64 0
  %134 = load i32, ptr %33, align 4, !tbaa !8
  %135 = getelementptr inbounds [64 x i8], ptr %31, i64 0, i64 0
  %136 = load i32, ptr %30, align 4, !tbaa !8
  %137 = call i32 @wc_HashUpdate(ptr noundef %133, i32 noundef %134, ptr noundef %135, i32 noundef %136)
  store i32 %137, ptr %24, align 4, !tbaa !8
  %138 = load i32, ptr %24, align 4, !tbaa !8
  %139 = icmp ne i32 %138, 0
  br i1 %139, label %140, label %141

140:                                              ; preds = %132
  br label %153

141:                                              ; preds = %132
  %142 = getelementptr inbounds [1 x %struct.wc_HashAlg], ptr %32, i64 0, i64 0
  %143 = load i32, ptr %33, align 4, !tbaa !8
  %144 = getelementptr inbounds [64 x i8], ptr %31, i64 0, i64 0
  %145 = call i32 @wc_HashFinal(ptr noundef %142, i32 noundef %143, ptr noundef %144)
  store i32 %145, ptr %24, align 4, !tbaa !8
  %146 = load i32, ptr %24, align 4, !tbaa !8
  %147 = icmp ne i32 %146, 0
  br i1 %147, label %148, label %149

148:                                              ; preds = %141
  br label %153

149:                                              ; preds = %141
  br label %150

150:                                              ; preds = %149
  %151 = load i32, ptr %27, align 4, !tbaa !8
  %152 = add nsw i32 %151, 1
  store i32 %152, ptr %27, align 4, !tbaa !8
  br label %128, !llvm.loop !11

153:                                              ; preds = %148, %140, %128
  %154 = load i32, ptr %24, align 4, !tbaa !8
  %155 = icmp ne i32 %154, 0
  br i1 %155, label %156, label %157

156:                                              ; preds = %153
  store i32 3, ptr %34, align 4
  br label %216

157:                                              ; preds = %153
  %158 = load i32, ptr %25, align 4, !tbaa !8
  %159 = icmp ne i32 %158, 0
  br i1 %159, label %160, label %182

160:                                              ; preds = %157
  %161 = load i32, ptr %25, align 4, !tbaa !8
  %162 = load i32, ptr %30, align 4, !tbaa !8
  %163 = call i32 @min(i32 noundef %161, i32 noundef %162)
  store i32 %163, ptr %28, align 4, !tbaa !8
  %164 = load ptr, ptr %13, align 8, !tbaa !3
  %165 = load i32, ptr %14, align 4, !tbaa !8
  %166 = load i32, ptr %25, align 4, !tbaa !8
  %167 = sub nsw i32 %165, %166
  %168 = sext i32 %167 to i64
  %169 = getelementptr inbounds i8, ptr %164, i64 %168
  %170 = getelementptr inbounds [64 x i8], ptr %31, i64 0, i64 0
  %171 = load i32, ptr %28, align 4, !tbaa !8
  %172 = sext i32 %171 to i64
  call void @llvm.memcpy.p0.p0.i64(ptr align 1 %169, ptr align 16 %170, i64 %172, i1 false)
  %173 = load i32, ptr %28, align 4, !tbaa !8
  %174 = load i32, ptr %29, align 4, !tbaa !8
  %175 = add nsw i32 %174, %173
  store i32 %175, ptr %29, align 4, !tbaa !8
  %176 = load i32, ptr %28, align 4, !tbaa !8
  %177 = load i32, ptr %25, align 4, !tbaa !8
  %178 = sub nsw i32 %177, %176
  store i32 %178, ptr %25, align 4, !tbaa !8
  %179 = load i32, ptr %28, align 4, !tbaa !8
  %180 = load i32, ptr %35, align 4, !tbaa !8
  %181 = sub nsw i32 %180, %179
  store i32 %181, ptr %35, align 4, !tbaa !8
  br label %182

182:                                              ; preds = %160, %157
  %183 = load i32, ptr %26, align 4, !tbaa !8
  %184 = icmp ne i32 %183, 0
  br i1 %184, label %185, label %215

185:                                              ; preds = %182
  %186 = load i32, ptr %35, align 4, !tbaa !8
  %187 = icmp ne i32 %186, 0
  br i1 %187, label %188, label %215

188:                                              ; preds = %185
  %189 = load i32, ptr %26, align 4, !tbaa !8
  %190 = load i32, ptr %35, align 4, !tbaa !8
  %191 = call i32 @min(i32 noundef %189, i32 noundef %190)
  store i32 %191, ptr %28, align 4, !tbaa !8
  %192 = load ptr, ptr %15, align 8, !tbaa !3
  %193 = icmp ne ptr %192, null
  br i1 %193, label %194, label %208

194:                                              ; preds = %188
  %195 = load ptr, ptr %15, align 8, !tbaa !3
  %196 = load i32, ptr %16, align 4, !tbaa !8
  %197 = load i32, ptr %26, align 4, !tbaa !8
  %198 = sub nsw i32 %196, %197
  %199 = sext i32 %198 to i64
  %200 = getelementptr inbounds i8, ptr %195, i64 %199
  %201 = load i32, ptr %30, align 4, !tbaa !8
  %202 = load i32, ptr %35, align 4, !tbaa !8
  %203 = sub nsw i32 %201, %202
  %204 = sext i32 %203 to i64
  %205 = getelementptr inbounds [64 x i8], ptr %31, i64 0, i64 %204
  %206 = load i32, ptr %28, align 4, !tbaa !8
  %207 = sext i32 %206 to i64
  call void @llvm.memcpy.p0.p0.i64(ptr align 1 %200, ptr align 1 %205, i64 %207, i1 false)
  br label %208

208:                                              ; preds = %194, %188
  %209 = load i32, ptr %28, align 4, !tbaa !8
  %210 = load i32, ptr %29, align 4, !tbaa !8
  %211 = add nsw i32 %210, %209
  store i32 %211, ptr %29, align 4, !tbaa !8
  %212 = load i32, ptr %28, align 4, !tbaa !8
  %213 = load i32, ptr %26, align 4, !tbaa !8
  %214 = sub nsw i32 %213, %212
  store i32 %214, ptr %26, align 4, !tbaa !8
  br label %215

215:                                              ; preds = %208, %185, %182
  store i32 0, ptr %34, align 4
  br label %216

216:                                              ; preds = %215, %156, %126, %117, %105, %95
  call void @llvm.lifetime.end.p0(i64 4, ptr %35) #6
  %217 = load i32, ptr %34, align 4
  switch i32 %217, label %238 [
    i32 0, label %218
    i32 3, label %219
  ]

218:                                              ; preds = %216
  br label %77, !llvm.loop !13

219:                                              ; preds = %216, %77
  %220 = getelementptr inbounds [1 x %struct.wc_HashAlg], ptr %32, i64 0, i64 0
  %221 = load i32, ptr %33, align 4, !tbaa !8
  %222 = call i32 @wc_HashFree(ptr noundef %220, i32 noundef %221)
  %223 = load i32, ptr %24, align 4, !tbaa !8
  %224 = icmp ne i32 %223, 0
  br i1 %224, label %225, label %227

225:                                              ; preds = %219
  %226 = load i32, ptr %24, align 4, !tbaa !8
  store i32 %226, ptr %12, align 4
  store i32 1, ptr %34, align 4
  br label %236

227:                                              ; preds = %219
  %228 = load i32, ptr %29, align 4, !tbaa !8
  %229 = load i32, ptr %14, align 4, !tbaa !8
  %230 = load i32, ptr %16, align 4, !tbaa !8
  %231 = add nsw i32 %229, %230
  %232 = icmp ne i32 %228, %231
  br i1 %232, label %233, label %234

233:                                              ; preds = %227
  store i32 -132, ptr %12, align 4
  store i32 1, ptr %34, align 4
  br label %236

234:                                              ; preds = %227
  %235 = load i32, ptr %24, align 4, !tbaa !8
  store i32 %235, ptr %12, align 4
  store i32 1, ptr %34, align 4
  br label %236

236:                                              ; preds = %234, %233, %225, %72, %62, %50
  call void @llvm.lifetime.end.p0(i64 4, ptr %33) #6
  call void @llvm.lifetime.end.p0(i64 432, ptr %32) #6
  call void @llvm.lifetime.end.p0(i64 64, ptr %31) #6
  call void @llvm.lifetime.end.p0(i64 4, ptr %30) #6
  call void @llvm.lifetime.end.p0(i64 4, ptr %29) #6
  call void @llvm.lifetime.end.p0(i64 4, ptr %28) #6
  call void @llvm.lifetime.end.p0(i64 4, ptr %27) #6
  call void @llvm.lifetime.end.p0(i64 4, ptr %26) #6
  call void @llvm.lifetime.end.p0(i64 4, ptr %25) #6
  call void @llvm.lifetime.end.p0(i64 4, ptr %24) #6
  %237 = load i32, ptr %12, align 4
  ret i32 %237

238:                                              ; preds = %216
  unreachable
}