; Function Attrs: nounwind uwtable
define i32 @wc_PBKDF1_ex(ptr noundef writeonly captures(address_is_null) %0, i32 noundef %1, ptr noundef writeonly captures(address_is_null) %2, i32 noundef %3, ptr noundef %4, i32 noundef %5, ptr noundef %6, i32 noundef %7, i32 noundef %8, i32 noundef %9, ptr noundef %10) local_unnamed_addr #0 {
  %12 = alloca [64 x i8], align 16
  %13 = alloca [1 x %struct.wc_HashAlg], align 16
  call void @llvm.lifetime.start.p0(i64 64, ptr nonnull %12) #6
  call void @llvm.lifetime.start.p0(i64 432, ptr nonnull %13) #6
  %14 = icmp eq ptr %0, null
  %15 = or i32 %3, %1
  %16 = or i32 %15, %5
  %17 = or i32 %16, %7
  %18 = icmp slt i32 %17, 0
  %or.cond7 = or i1 %14, %18
  br i1 %or.cond7, label %72, label %19

19:                                               ; preds = %11
  %20 = tail call i32 @wc_HashTypeConvert(i32 noundef %9) #6
  %21 = tail call i32 @wc_HashGetDigestSize(i32 noundef %20) #6
  %22 = icmp slt i32 %21, 0
  br i1 %22, label %72, label %23

23:                                               ; preds = %19
  %24 = call i32 @wc_HashInit_ex(ptr noundef nonnull %13, i32 noundef %20, ptr noundef %10, i32 noundef -2) #6
  %.not = icmp eq i32 %24, 0
  br i1 %.not, label %.preheader149, label %72

.preheader149:                                    ; preds = %23
  %25 = add nsw i32 %3, %1
  %26 = icmp sgt i32 %25, 0
  br i1 %26, label %.lr.ph160, label %._crit_edge161

.lr.ph160:                                        ; preds = %.preheader149
  %.not126 = icmp eq ptr %6, null
  %27 = icmp sgt i32 %8, 1
  %.not133 = icmp eq ptr %2, null
  br label %28

28:                                               ; preds = %.lr.ph160, %68
  %.092159 = phi i32 [ 0, %.lr.ph160 ], [ %.2, %68 ]
  %.094158 = phi i32 [ %3, %.lr.ph160 ], [ %.195, %68 ]
  %.097157 = phi i32 [ %1, %.lr.ph160 ], [ %.299, %68 ]
  %.not123 = icmp eq i32 %.092159, 0
  br i1 %.not123, label %31, label %29

29:                                               ; preds = %28
  %30 = call i32 @wc_HashUpdate(ptr noundef nonnull %13, i32 noundef %20, ptr noundef nonnull %12, i32 noundef %21) #6
  %.not124 = icmp eq i32 %30, 0
  br i1 %.not124, label %31, label %.thread

31:                                               ; preds = %29, %28
  %32 = call i32 @wc_HashUpdate(ptr noundef nonnull %13, i32 noundef %20, ptr noundef %4, i32 noundef %5) #6
  %.not125 = icmp eq i32 %32, 0
  br i1 %.not125, label %33, label %.thread

33:                                               ; preds = %31
  br i1 %.not126, label %36, label %34

34:                                               ; preds = %33
  %35 = call i32 @wc_HashUpdate(ptr noundef nonnull %13, i32 noundef %20, ptr noundef nonnull %6, i32 noundef %7) #6
  %.not127 = icmp eq i32 %35, 0
  br i1 %.not127, label %36, label %.thread

36:                                               ; preds = %34, %33
  %37 = call i32 @wc_HashFinal(ptr noundef nonnull %13, i32 noundef %20, ptr noundef nonnull %12) #6
  %.not128 = icmp eq i32 %37, 0
  br i1 %.not128, label %.preheader, label %.thread

.preheader:                                       ; preds = %36
  br i1 %27, label %.lr.ph, label %._crit_edge

38:                                               ; preds = %41
  %39 = add nuw nsw i32 %.093156, 1
  %exitcond.not = icmp eq i32 %39, %8
  br i1 %exitcond.not, label %._crit_edge, label %.lr.ph, !llvm.loop !3

.lr.ph:                                           ; preds = %.preheader, %38
  %.093156 = phi i32 [ %39, %38 ], [ 1, %.preheader ]
  %40 = call i32 @wc_HashUpdate(ptr noundef nonnull %13, i32 noundef %20, ptr noundef nonnull %12, i32 noundef %21) #6
  %.not129 = icmp eq i32 %40, 0
  br i1 %.not129, label %41, label %.thread

41:                                               ; preds = %.lr.ph
  %42 = call i32 @wc_HashFinal(ptr noundef nonnull %13, i32 noundef %20, ptr noundef nonnull %12) #6
  %.not130 = icmp eq i32 %42, 0
  br i1 %.not130, label %38, label %.thread

._crit_edge:                                      ; preds = %38, %.preheader
  %.not132 = icmp eq i32 %.097157, 0
  br i1 %.not132, label %52, label %43

43:                                               ; preds = %._crit_edge
  %44 = call noundef i32 @llvm.umin.i32(i32 %.097157, i32 range(i32 -2147483647, -2147483648) %21)
  %45 = sub nsw i32 %1, %.097157
  %46 = sext i32 %45 to i64
  %47 = getelementptr inbounds i8, ptr %0, i64 %46
  %48 = zext nneg i32 %44 to i64
  call void @llvm.memcpy.p0.p0.i64(ptr align 1 %47, ptr nonnull align 16 %12, i64 %48, i1 false)
  %49 = add nsw i32 %.092159, %44
  %50 = sub nsw i32 %.097157, %44
  %51 = sub nsw i32 %21, %44
  br label %52

52:                                               ; preds = %43, %._crit_edge
  %.299 = phi i32 [ %50, %43 ], [ 0, %._crit_edge ]
  %.3 = phi i32 [ %49, %43 ], [ %.092159, %._crit_edge ]
  %.0 = phi i32 [ %51, %43 ], [ %21, %._crit_edge ]
  %53 = icmp ne i32 %.094158, 0
  %54 = icmp ne i32 %.0, 0
  %or.cond9 = select i1 %53, i1 %54, i1 false
  br i1 %or.cond9, label %55, label %68

55:                                               ; preds = %52
  %56 = call noundef i32 @llvm.umin.i32(i32 %.094158, i32 range(i32 -2147483647, -2147483648) %.0)
  br i1 %.not133, label %65, label %57

57:                                               ; preds = %55
  %58 = sub nsw i32 %3, %.094158
  %59 = sext i32 %58 to i64
  %60 = getelementptr inbounds i8, ptr %2, i64 %59
  %61 = sub nsw i32 %21, %.0
  %62 = sext i32 %61 to i64
  %63 = getelementptr inbounds [64 x i8], ptr %12, i64 0, i64 %62
  %64 = sext i32 %56 to i64
  call void @llvm.memcpy.p0.p0.i64(ptr nonnull align 1 %60, ptr nonnull align 1 %63, i64 %64, i1 false)
  br label %65

65:                                               ; preds = %57, %55
  %66 = add nsw i32 %56, %.3
  %67 = sub nsw i32 %.094158, %56
  br label %68

68:                                               ; preds = %52, %65
  %.195 = phi i32 [ %67, %65 ], [ %.094158, %52 ]
  %.2 = phi i32 [ %66, %65 ], [ %.3, %52 ]
  %69 = icmp slt i32 %.2, %25
  br i1 %69, label %28, label %._crit_edge161

.thread:                                          ; preds = %29, %31, %34, %36, %41, %.lr.ph
  %.2102.ph = phi i32 [ %40, %.lr.ph ], [ %42, %41 ], [ %30, %29 ], [ %32, %31 ], [ %35, %34 ], [ %37, %36 ]
  %70 = call i32 @wc_HashFree(ptr noundef nonnull %13, i32 noundef %20) #6
  br label %72

._crit_edge161:                                   ; preds = %68, %.preheader149
  %.092.lcssa = phi i32 [ 0, %.preheader149 ], [ %.2, %68 ]
  %71 = call i32 @wc_HashFree(ptr noundef nonnull %13, i32 noundef %20) #6
  %.not135 = icmp eq i32 %.092.lcssa, %25
  %. = select i1 %.not135, i32 0, i32 -132
  br label %72

72:                                               ; preds = %.thread, %._crit_edge161, %23, %19, %11
  %.091 = phi i32 [ -173, %11 ], [ %21, %19 ], [ %24, %23 ], [ %.2102.ph, %.thread ], [ %., %._crit_edge161 ]
  call void @llvm.lifetime.end.p0(i64 432, ptr nonnull %13) #6
  call void @llvm.lifetime.end.p0(i64 64, ptr nonnull %12) #6
  ret i32 %.091
}